target datalayout = "e-m:e-p270:32:32-p271:32:32-p272:64:64-i64:64-i128:128-f80:128-n8:16:32:64-S128"
target triple = "x86_64-pc-linux-gnu"

%struct.IndexScanDescData = type { ptr, ptr, ptr, i32, i32, ptr, ptr, i8, i8, i8, i8, i8, ptr, ptr, ptr, ptr, ptr, %struct.ItemPointerData, i8, ptr, i8, ptr, ptr, i8, ptr }
%struct.ItemPointerData = type { %struct.BlockIdData, i16 }
%struct.BlockIdData = type { i16, i16 }
%struct.GISTSTATE = type { ptr, ptr, ptr, ptr, ptr, [32 x %struct.FmgrInfo], [32 x %struct.FmgrInfo], [32 x %struct.FmgrInfo], [32 x %struct.FmgrInfo], [32 x %struct.FmgrInfo], [32 x %struct.FmgrInfo], [32 x %struct.FmgrInfo], [32 x %struct.FmgrInfo], [32 x %struct.FmgrInfo], [32 x i32] }
%struct.FmgrInfo = type { ptr, i32, i16, i8, i8, i8, ptr, ptr, ptr }
%struct.GISTScanOpaqueData = type { ptr, ptr, ptr, ptr, i8, i8, ptr, ptr, i32, i32, i64, [1024 x %struct.GISTSearchHeapItem], i16, i16, ptr }
%struct.GISTSearchHeapItem = type { %struct.ItemPointerData, i8, i8, ptr, i16 }

@CurrentMemoryContext = external global ptr, align 8

; Function Attrs: inlinehint nounwind uwtable
define internal ptr @MemoryContextSwitchTo(ptr noundef %0) #3 {
  %2 = alloca ptr, align 8
  %3 = alloca ptr, align 8
  store ptr %0, ptr %2, align 8
  call void @llvm.lifetime.start.p0(i64 8, ptr %3) #7
  %4 = load ptr, ptr @CurrentMemoryContext, align 8
  store ptr %4, ptr %3, align 8
  %5 = load ptr, ptr %2, align 8
  store ptr %5, ptr @CurrentMemoryContext, align 8
  %6 = load ptr, ptr %3, align 8
  call void @llvm.lifetime.end.p0(i64 8, ptr %3) #7
  ret ptr %6
}

; Function Attrs: nounwind uwtable
define dso_local ptr @gistbeginscan(ptr noundef %0, i32 noundef %1, i32 noundef %2) #0 {
  %4 = alloca ptr, align 8
  %5 = alloca i32, align 4
  %6 = alloca i32, align 4
  %7 = alloca ptr, align 8
  %8 = alloca ptr, align 8
  %9 = alloca ptr, align 8
  %10 = alloca ptr, align 8
  store ptr %0, ptr %4, align 8
  store i32 %1, ptr %5, align 4
  store i32 %2, ptr %6, align 4
  call void @llvm.lifetime.start.p0(i64 8, ptr %7) #7
  call void @llvm.lifetime.start.p0(i64 8, ptr %8) #7
  call void @llvm.lifetime.start.p0(i64 8, ptr %9) #7
  call void @llvm.lifetime.start.p0(i64 8, ptr %10) #7
  %11 = load ptr, ptr %4, align 8
  %12 = load i32, ptr %5, align 4
  %13 = load i32, ptr %6, align 4
  %14 = call ptr @RelationGetIndexScan(ptr noundef %11, i32 noundef %12, i32 noundef %13)
  store ptr %14, ptr %7, align 8
  %15 = load ptr, ptr %7, align 8
  %16 = getelementptr inbounds nuw %struct.IndexScanDescData, ptr %15, i32 0, i32 1
  %17 = load ptr, ptr %16, align 8
  %18 = call ptr @initGISTstate(ptr noundef %17)
  store ptr %18, ptr %8, align 8
  %19 = load ptr, ptr %8, align 8
  %20 = getelementptr inbounds nuw %struct.GISTSTATE, ptr %19, i32 0, i32 0
  %21 = load ptr, ptr %20, align 8
  %22 = call ptr @MemoryContextSwitchTo(ptr noundef %21)
  store ptr %22, ptr %10, align 8
  %23 = call ptr @palloc0(i64 noundef 24664)
  store ptr %23, ptr %9, align 8
  %24 = load ptr, ptr %8, align 8
  %25 = load ptr, ptr %9, align 8
  %26 = getelementptr inbounds nuw %struct.GISTScanOpaqueData, ptr %25, i32 0, i32 0
  store ptr %24, ptr %26, align 8
  %27 = call ptr @createTempGistContext()
  %28 = load ptr, ptr %8, align 8
  %29 = getelementptr inbounds nuw %struct.GISTSTATE, ptr %28, i32 0, i32 1
  store ptr %27, ptr %29, align 8
  %30 = load ptr, ptr %9, align 8
  %31 = getelementptr inbounds nuw %struct.GISTScanOpaqueData, ptr %30, i32 0, i32 2
  store ptr null, ptr %31, align 8
  %32 = load ptr, ptr %8, align 8
  %33 = getelementptr inbounds nuw %struct.GISTSTATE, ptr %32, i32 0, i32 0
  %34 = load ptr, ptr %33, align 8
  %35 = load ptr, ptr %9, align 8
  %36 = getelementptr inbounds nuw %struct.GISTScanOpaqueData, ptr %35, i32 0, i32 3
  store ptr %34, ptr %36, align 8
  %37 = load ptr, ptr %7, align 8
  %38 = getelementptr inbounds nuw %struct.IndexScanDescData, ptr %37, i32 0, i32 4
  %39 = load i32, ptr %38, align 4
  %40 = sext i32 %39 to i64
  %41 = mul i64 16, %40
  %42 = call ptr @palloc(i64 noundef %41)
  %43 = load ptr, ptr %9, align 8
  %44 = getelementptr inbounds nuw %struct.GISTScanOpaqueData, ptr %43, i32 0, i32 6
  store ptr %42, ptr %44, align 8
  %45 = load ptr, ptr %9, align 8
  %46 = getelementptr inbounds nuw %struct.GISTScanOpaqueData, ptr %45, i32 0, i32 4
  store i8 1, ptr %46, align 8
  %47 = load ptr, ptr %7, align 8
  %48 = getelementptr inbounds nuw %struct.IndexScanDescData, ptr %47, i32 0, i32 4
  %49 = load i32, ptr %48, align 4
  %50 = icmp sgt i32 %49, 0
  br i1 %50, label %51, label %76

51:                                               ; preds = %3
  %52 = load ptr, ptr %7, align 8
  %53 = getelementptr inbounds nuw %struct.IndexScanDescData, ptr %52, i32 0, i32 4
  %54 = load i32, ptr %53, align 4
  %55 = sext i32 %54 to i64
  %56 = mul i64 8, %55
  %57 = call ptr @palloc0(i64 noundef %56)
  %58 = load ptr, ptr %7, align 8
  %59 = getelementptr inbounds nuw %struct.IndexScanDescData, ptr %58, i32 0, i32 21
  store ptr %57, ptr %59, align 8
  %60 = load ptr, ptr %7, align 8
  %61 = getelementptr inbounds nuw %struct.IndexScanDescData, ptr %60, i32 0, i32 4
  %62 = load i32, ptr %61, align 4
  %63 = sext i32 %62 to i64
  %64 = mul i64 1, %63
  %65 = call ptr @palloc(i64 noundef %64)
  %66 = load ptr, ptr %7, align 8
  %67 = getelementptr inbounds nuw %struct.IndexScanDescData, ptr %66, i32 0, i32 22
  store ptr %65, ptr %67, align 8
  %68 = load ptr, ptr %7, align 8
  %69 = getelementptr inbounds nuw %struct.IndexScanDescData, ptr %68, i32 0, i32 22
  %70 = load ptr, ptr %69, align 8
  %71 = load ptr, ptr %7, align 8
  %72 = getelementptr inbounds nuw %struct.IndexScanDescData, ptr %71, i32 0, i32 4
  %73 = load i32, ptr %72, align 4
  %74 = sext i32 %73 to i64
  %75 = mul i64 1, %74
  call void @llvm.memset.p0.i64(ptr align 1 %70, i8 1, i64 %75, i1 false)
  br label %76

76:                                               ; preds = %51, %3
  %77 = load ptr, ptr %9, align 8
  %78 = getelementptr inbounds nuw %struct.GISTScanOpaqueData, ptr %77, i32 0, i32 7
  store ptr null, ptr %78, align 8
  %79 = load ptr, ptr %9, align 8
  %80 = getelementptr inbounds nuw %struct.GISTScanOpaqueData, ptr %79, i32 0, i32 8
  store i32 0, ptr %80, align 8
  %81 = load ptr, ptr %9, align 8
  %82 = getelementptr inbounds nuw %struct.GISTScanOpaqueData, ptr %81, i32 0, i32 9
  store i32 -1, ptr %82, align 4
  %83 = load ptr, ptr %9, align 8
  %84 = getelementptr inbounds nuw %struct.GISTScanOpaqueData, ptr %83, i32 0, i32 10
  store i64 0, ptr %84, align 8
  %85 = load ptr, ptr %9, align 8
  %86 = load ptr, ptr %7, align 8
  %87 = getelementptr inbounds nuw %struct.IndexScanDescData, ptr %86, i32 0, i32 12
  store ptr %85, ptr %87, align 8
  %88 = load ptr, ptr %10, align 8
  %89 = call ptr @MemoryContextSwitchTo(ptr noundef %88)
  %90 = load ptr, ptr %7, align 8
  call void @llvm.lifetime.end.p0(i64 8, ptr %10) #7
  call void @llvm.lifetime.end.p0(i64 8, ptr %9) #7
  call void @llvm.lifetime.end.p0(i64 8, ptr %8) #7
  call void @llvm.lifetime.end.p0(i64 8, ptr %7) #7
  ret ptr %90
}