; Function Attrs: nounwind uwtable
define dso_local ptr @gistbeginscan(ptr noundef %0, i32 noundef %1, i32 noundef %2) local_unnamed_addr #0 {
  %4 = tail call ptr @RelationGetIndexScan(ptr noundef %0, i32 noundef %1, i32 noundef %2) #6
  %5 = getelementptr inbounds nuw i8, ptr %4, i64 8
  %6 = load ptr, ptr %5, align 8
  %7 = tail call ptr @initGISTstate(ptr noundef %6) #6
  %8 = load ptr, ptr %7, align 8
  %9 = load ptr, ptr @CurrentMemoryContext, align 8
  store ptr %8, ptr @CurrentMemoryContext, align 8
  %10 = tail call ptr @palloc0(i64 noundef 24664) #6
  store ptr %7, ptr %10, align 8
  %11 = tail call ptr @createTempGistContext() #6
  %12 = getelementptr inbounds nuw i8, ptr %7, i64 8
  store ptr %11, ptr %12, align 8
  %13 = getelementptr inbounds nuw i8, ptr %10, i64 16
  store ptr null, ptr %13, align 8
  %14 = load ptr, ptr %7, align 8
  %15 = getelementptr inbounds nuw i8, ptr %10, i64 24
  store ptr %14, ptr %15, align 8
  %16 = getelementptr inbounds nuw i8, ptr %4, i64 28
  %17 = load i32, ptr %16, align 4
  %18 = sext i32 %17 to i64
  %19 = shl nsw i64 %18, 4
  %20 = tail call ptr @palloc(i64 noundef %19) #6
  %21 = getelementptr inbounds nuw i8, ptr %10, i64 40
  store ptr %20, ptr %21, align 8
  %22 = getelementptr inbounds nuw i8, ptr %10, i64 32
  store i8 1, ptr %22, align 8
  %23 = load i32, ptr %16, align 4
  %24 = icmp sgt i32 %23, 0
  br i1 %24, label %25, label %36

25:                                               ; preds = %3
  %26 = zext nneg i32 %23 to i64
  %27 = shl nuw nsw i64 %26, 3
  %28 = tail call ptr @palloc0(i64 noundef %27) #6
  %29 = getelementptr inbounds nuw i8, ptr %4, i64 120
  store ptr %28, ptr %29, align 8
  %30 = load i32, ptr %16, align 4
  %31 = sext i32 %30 to i64
  %32 = tail call ptr @palloc(i64 noundef %31) #6
  %33 = getelementptr inbounds nuw i8, ptr %4, i64 128
  store ptr %32, ptr %33, align 8
  %34 = load i32, ptr %16, align 4
  %35 = sext i32 %34 to i64
  tail call void @llvm.memset.p0.i64(ptr align 1 %32, i8 1, i64 %35, i1 false)
  br label %36

36:                                               ; preds = %25, %3
  %37 = getelementptr inbounds nuw i8, ptr %10, i64 48
  store ptr null, ptr %37, align 8
  %38 = getelementptr inbounds nuw i8, ptr %10, i64 56
  store i32 0, ptr %38, align 8
  %39 = getelementptr inbounds nuw i8, ptr %10, i64 60
  store i32 -1, ptr %39, align 4
  %40 = getelementptr inbounds nuw i8, ptr %10, i64 64
  store i64 0, ptr %40, align 8
  %41 = getelementptr inbounds nuw i8, ptr %4, i64 56
  store ptr %10, ptr %41, align 8
  store ptr %9, ptr @CurrentMemoryContext, align 8
  ret ptr %4
}